target datalayout = "e-m:e-p270:32:32-p271:32:32-p272:64:64-i64:64-i128:128-f80:128-n8:16:32:64-S128"
target triple = "x86_64-pc-linux-gnu"

%struct.mbedtls_mpi = type { i32, i64, ptr }

; Function Attrs: mustprogress nounwind uwtable
define hidden i32 @mbedtls_mpi_write_binary(ptr noundef %0, ptr noundef %1, i64 noundef %2) #0 {
  %4 = alloca i32, align 4
  %5 = alloca ptr, align 8
  %6 = alloca ptr, align 8
  %7 = alloca i64, align 8
  %8 = alloca i64, align 8
  %9 = alloca i64, align 8
  %10 = alloca ptr, align 8
  %11 = alloca i64, align 8
  %12 = alloca i32, align 4
  store ptr %0, ptr %5, align 8, !tbaa !3
  store ptr %1, ptr %6, align 8, !tbaa !26
  store i64 %2, ptr %7, align 8, !tbaa !16
  call void @llvm.lifetime.start.p0(i64 8, ptr %8) #10
  call void @llvm.lifetime.start.p0(i64 8, ptr %9) #10
  call void @llvm.lifetime.start.p0(i64 8, ptr %10) #10
  call void @llvm.lifetime.start.p0(i64 8, ptr %11) #10
  br label %13

13:                                               ; preds = %3
  br label %14

14:                                               ; preds = %13
  br label %15

15:                                               ; preds = %14
  br label %16

16:                                               ; preds = %15
  br label %17

17:                                               ; preds = %16
  br label %18

18:                                               ; preds = %17
  %19 = load ptr, ptr %5, align 8, !tbaa !3
  %20 = getelementptr inbounds nuw %struct.mbedtls_mpi, ptr %19, i32 0, i32 1
  %21 = load i64, ptr %20, align 8, !tbaa !13
  %22 = mul i64 %21, 8
  store i64 %22, ptr %8, align 8, !tbaa !16
  %23 = load i64, ptr %8, align 8, !tbaa !16
  %24 = load i64, ptr %7, align 8, !tbaa !16
  %25 = icmp ult i64 %23, %24
  br i1 %25, label %26, label %38

26:                                               ; preds = %18
  %27 = load i64, ptr %8, align 8, !tbaa !16
  store i64 %27, ptr %9, align 8, !tbaa !16
  %28 = load ptr, ptr %6, align 8, !tbaa !26
  %29 = load i64, ptr %7, align 8, !tbaa !16
  %30 = getelementptr inbounds nuw i8, ptr %28, i64 %29
  %31 = load i64, ptr %8, align 8, !tbaa !16
  %32 = sub i64 0, %31
  %33 = getelementptr inbounds i8, ptr %30, i64 %32
  store ptr %33, ptr %10, align 8, !tbaa !26
  %34 = load ptr, ptr %6, align 8, !tbaa !26
  %35 = load i64, ptr %7, align 8, !tbaa !16
  %36 = load i64, ptr %8, align 8, !tbaa !16
  %37 = sub i64 %35, %36
  call void @llvm.memset.p0.i64(ptr align 1 %34, i8 0, i64 %37, i1 false)
  br label %66

38:                                               ; preds = %18
  %39 = load i64, ptr %7, align 8, !tbaa !16
  store i64 %39, ptr %9, align 8, !tbaa !16
  %40 = load ptr, ptr %6, align 8, !tbaa !26
  store ptr %40, ptr %10, align 8, !tbaa !26
  %41 = load i64, ptr %9, align 8, !tbaa !16
  store i64 %41, ptr %11, align 8, !tbaa !16
  br label %42

42:                                               ; preds = %62, %38
  %43 = load i64, ptr %11, align 8, !tbaa !16
  %44 = load i64, ptr %8, align 8, !tbaa !16
  %45 = icmp ult i64 %43, %44
  br i1 %45, label %46, label %65

46:                                               ; preds = %42
  %47 = load ptr, ptr %5, align 8, !tbaa !3
  %48 = getelementptr inbounds nuw %struct.mbedtls_mpi, ptr %47, i32 0, i32 2
  %49 = load ptr, ptr %48, align 8, !tbaa !14
  %50 = load i64, ptr %11, align 8, !tbaa !16
  %51 = udiv i64 %50, 8
  %52 = getelementptr inbounds nuw i64, ptr %49, i64 %51
  %53 = load i64, ptr %52, align 8, !tbaa !16
  %54 = load i64, ptr %11, align 8, !tbaa !16
  %55 = urem i64 %54, 8
  %56 = mul i64 %55, 8
  %57 = lshr i64 %53, %56
  %58 = and i64 %57, 255
  %59 = icmp ne i64 %58, 0
  br i1 %59, label %60, label %61

60:                                               ; preds = %46
  store i32 -8, ptr %4, align 4
  store i32 1, ptr %12, align 4
  br label %95

61:                                               ; preds = %46
  br label %62

62:                                               ; preds = %61
  %63 = load i64, ptr %11, align 8, !tbaa !16
  %64 = add i64 %63, 1
  store i64 %64, ptr %11, align 8, !tbaa !16
  br label %42, !llvm.loop !40

65:                                               ; preds = %42
  br label %66

66:                                               ; preds = %65, %26
  store i64 0, ptr %11, align 8, !tbaa !16
  br label %67

67:                                               ; preds = %91, %66
  %68 = load i64, ptr %11, align 8, !tbaa !16
  %69 = load i64, ptr %9, align 8, !tbaa !16
  %70 = icmp ult i64 %68, %69
  br i1 %70, label %71, label %94

71:                                               ; preds = %67
  %72 = load ptr, ptr %5, align 8, !tbaa !3
  %73 = getelementptr inbounds nuw %struct.mbedtls_mpi, ptr %72, i32 0, i32 2
  %74 = load ptr, ptr %73, align 8, !tbaa !14
  %75 = load i64, ptr %11, align 8, !tbaa !16
  %76 = udiv i64 %75, 8
  %77 = getelementptr inbounds nuw i64, ptr %74, i64 %76
  %78 = load i64, ptr %77, align 8, !tbaa !16
  %79 = load i64, ptr %11, align 8, !tbaa !16
  %80 = urem i64 %79, 8
  %81 = mul i64 %80, 8
  %82 = lshr i64 %78, %81
  %83 = and i64 %82, 255
  %84 = trunc i64 %83 to i8
  %85 = load ptr, ptr %10, align 8, !tbaa !26
  %86 = load i64, ptr %9, align 8, !tbaa !16
  %87 = load i64, ptr %11, align 8, !tbaa !16
  %88 = sub i64 %86, %87
  %89 = sub i64 %88, 1
  %90 = getelementptr inbounds nuw i8, ptr %85, i64 %89
  store i8 %84, ptr %90, align 1, !tbaa !21
  br label %91

91:                                               ; preds = %71
  %92 = load i64, ptr %11, align 8, !tbaa !16
  %93 = add i64 %92, 1
  store i64 %93, ptr %11, align 8, !tbaa !16
  br label %67, !llvm.loop !41

94:                                               ; preds = %67
  store i32 0, ptr %4, align 4
  store i32 1, ptr %12, align 4
  br label %95

95:                                               ; preds = %94, %60
  call void @llvm.lifetime.end.p0(i64 8, ptr %11) #10
  call void @llvm.lifetime.end.p0(i64 8, ptr %10) #10
  call void @llvm.lifetime.end.p0(i64 8, ptr %9) #10
  call void @llvm.lifetime.end.p0(i64 8, ptr %8) #10
  %96 = load i32, ptr %4, align 4
  ret i32 %96
}