; Function Attrs: mustprogress nofree norecurse nosync nounwind memory(read, argmem: readwrite, inaccessiblemem: none) uwtable
define hidden range(i32 -8, 1) i32 @mbedtls_mpi_write_binary(ptr noundef readonly captures(none) %0, ptr noundef writeonly captures(none) %1, i64 noundef %2) local_unnamed_addr #10 {
  %4 = getelementptr inbounds nuw i8, ptr %0, i64 8
  %5 = load i64, ptr %4, align 8, !tbaa !12
  %6 = shl i64 %5, 3
  %7 = icmp ult i64 %6, %2
  br i1 %7, label %11, label %.preheader

.preheader:                                       ; preds = %3
  %8 = icmp ult i64 %2, %6
  br i1 %8, label %.lr.ph, label %.loopexit35

.lr.ph:                                           ; preds = %.preheader
  %9 = getelementptr inbounds nuw i8, ptr %0, i64 16
  %10 = load ptr, ptr %9, align 8, !tbaa !11
  br label %18

11:                                               ; preds = %3
  %12 = getelementptr inbounds nuw i8, ptr %1, i64 %2
  %13 = sub i64 0, %6
  %14 = getelementptr inbounds i8, ptr %12, i64 %13
  %15 = sub nuw i64 %2, %6
  tail call void @llvm.memset.p0.i64(ptr align 1 %1, i8 0, i64 %15, i1 false)
  br label %.loopexit35

16:                                               ; preds = %18
  %17 = add i64 %.037, 1
  %exitcond.not = icmp eq i64 %17, %6
  br i1 %exitcond.not, label %.loopexit35, label %18, !llvm.loop !34

18:                                               ; preds = %.lr.ph, %16
  %.037 = phi i64 [ %2, %.lr.ph ], [ %17, %16 ]
  %19 = lshr i64 %.037, 3
  %20 = getelementptr inbounds nuw i64, ptr %10, i64 %19
  %21 = load i64, ptr %20, align 8, !tbaa !13
  %22 = shl i64 %.037, 3
  %23 = and i64 %22, 56
  %24 = shl nuw i64 255, %23
  %25 = and i64 %21, %24
  %.not = icmp eq i64 %25, 0
  br i1 %.not, label %16, label %.loopexit

.loopexit35:                                      ; preds = %16, %.preheader, %11
  %.029 = phi i64 [ %6, %11 ], [ %2, %.preheader ], [ %2, %16 ]
  %.028 = phi ptr [ %14, %11 ], [ %1, %.preheader ], [ %1, %16 ]
  %.not40 = icmp eq i64 %.029, 0
  br i1 %.not40, label %.loopexit, label %.lr.ph39

.lr.ph39:                                         ; preds = %.loopexit35
  %26 = getelementptr inbounds nuw i8, ptr %0, i64 16
  %27 = getelementptr i8, ptr %.028, i64 %.029
  br label %28

28:                                               ; preds = %.lr.ph39, %28
  %.138 = phi i64 [ 0, %.lr.ph39 ], [ %39, %28 ]
  %29 = load ptr, ptr %26, align 8, !tbaa !11
  %30 = lshr i64 %.138, 3
  %31 = getelementptr inbounds nuw i64, ptr %29, i64 %30
  %32 = load i64, ptr %31, align 8, !tbaa !13
  %33 = shl i64 %.138, 3
  %34 = and i64 %33, 56
  %35 = lshr i64 %32, %34
  %36 = trunc i64 %35 to i8
  %37 = xor i64 %.138, -1
  %38 = getelementptr i8, ptr %27, i64 %37
  store i8 %36, ptr %38, align 1, !tbaa !21
  %39 = add nuw i64 %.138, 1
  %exitcond42.not = icmp eq i64 %39, %.029
  br i1 %exitcond42.not, label %.loopexit, label %28, !llvm.loop !35

.loopexit:                                        ; preds = %18, %28, %.loopexit35
  %.030 = phi i32 [ 0, %.loopexit35 ], [ 0, %28 ], [ -8, %18 ]
  ret i32 %.030
}